; Function Attrs: mustprogress nofree norecurse nosync nounwind willreturn memory(read, inaccessiblemem: none) uwtable
define internal range(i32 0, 24) i32 @HIDAPI_DriverSwitch_GetJoystickCapabilities(ptr noundef readonly captures(none) %0, ptr readnone captures(none) %1) #2 {
  %3 = getelementptr inbounds nuw i8, ptr %0, i64 112
  %4 = load ptr, ptr %3, align 8
  %5 = getelementptr inbounds nuw i8, ptr %4, i64 18
  %6 = load i8, ptr %5, align 2, !range !3, !noundef !4
  %7 = trunc nuw i8 %6 to i1
  br i1 %7, label %8, label %12

8:                                                ; preds = %2
  %9 = getelementptr inbounds nuw i8, ptr %4, i64 16
  %10 = load i8, ptr %9, align 8, !range !3, !noundef !4
  %11 = trunc nuw i8 %10 to i1
  %spec.select = select i1 %11, i32 0, i32 4
  br label %12

12:                                               ; preds = %8, %2
  %.0 = phi i32 [ 0, %2 ], [ %spec.select, %8 ]
  %13 = getelementptr inbounds nuw i8, ptr %4, i64 32
  %14 = load i32, ptr %13, align 8
  %15 = icmp eq i32 %14, 3
  br i1 %15, label %16, label %22

16:                                               ; preds = %12
  %17 = getelementptr inbounds nuw i8, ptr %4, i64 16
  %18 = load i8, ptr %17, align 8, !range !3, !noundef !4
  %19 = trunc nuw i8 %18 to i1
  br i1 %19, label %22, label %20

20:                                               ; preds = %16
  %21 = or disjoint i32 %.0, 16
  br label %24

22:                                               ; preds = %16, %12
  %.off = add i32 %14, -1
  %switch = icmp ult i32 %.off, 2
  %23 = or disjoint i32 %.0, 16
  %spec.select11 = select i1 %switch, i32 %23, i32 %.0
  br label %24

24:                                               ; preds = %22, %20
  %.1 = phi i32 [ %21, %20 ], [ %spec.select11, %22 ]
  ret i32 %.1
}